#include <math.h>
#include <stdio.h>
#include <stdlib.h>
#include <string.h>

int main()
{
   char a[1000],q;
   int ans[30];
   int n;
   int i,flag,j,k;
   
   scanf("%d",&n); 
   scanf("%c",&q);
      
   for (i=1;i<=n;i++) 
      {
          
          
          for (j=0;j<30;j++) ans[j]=0;
          flag=0;
                      
          gets(a);       
          
          
          for (j=0;j<strlen(a);j++) ans[a[j]-'a']++;
          
          for (j=0;j<strlen(a);j++)
            if (ans[a[j]-'a']==1)
             {
                 printf("%c\n",a[j]);                             
                 flag=1;      
                 break;   
             }
          if (flag==0) printf("no\n");
      } 
   return 0;
}

