; ModuleID = '37/1083.c'
source_filename = "37/1083.c"
target datalayout = "e-m:e-p270:32:32-p271:32:32-p272:64:64-i64:64-f80:128-n8:16:32:64-S128"
target triple = "x86_64-pc-linux-gnu"

@.str = private unnamed_addr constant [3 x i8] c"%d\00", align 1
@.str.1 = private unnamed_addr constant [3 x i8] c"%c\00", align 1
@.str.2 = private unnamed_addr constant [4 x i8] c"%c\0A\00", align 1
@.str.3 = private unnamed_addr constant [4 x i8] c"no\0A\00", align 1

; Function Attrs: noinline nounwind uwtable
define dso_local i32 @main() #0 {
  %1 = alloca i32, align 4
  %2 = alloca [1000 x i8], align 16
  %3 = alloca i8, align 1
  %4 = alloca [30 x i32], align 16
  %5 = alloca i32, align 4
  %6 = alloca i32, align 4
  %7 = alloca i32, align 4
  %8 = alloca i32, align 4
  %9 = alloca i32, align 4
  store i32 0, i32* %1, align 4
  %10 = call i32 (i8*, ...) @__isoc99_scanf(i8* getelementptr inbounds ([3 x i8], [3 x i8]* @.str, i64 0, i64 0), i32* %5)
  %11 = call i32 (i8*, ...) @__isoc99_scanf(i8* getelementptr inbounds ([3 x i8], [3 x i8]* @.str.1, i64 0, i64 0), i8* %3)
  store i32 1, i32* %6, align 4
  br label %12

12:                                               ; preds = %85, %0
  %13 = load i32, i32* %6, align 4
  %14 = load i32, i32* %5, align 4
  %15 = icmp sle i32 %13, %14
  br i1 %15, label %16, label %88

16:                                               ; preds = %12
  store i32 0, i32* %8, align 4
  br label %17

17:                                               ; preds = %24, %16
  %18 = load i32, i32* %8, align 4
  %19 = icmp slt i32 %18, 30
  br i1 %19, label %20, label %27

20:                                               ; preds = %17
  %21 = load i32, i32* %8, align 4
  %22 = sext i32 %21 to i64
  %23 = getelementptr inbounds [30 x i32], [30 x i32]* %4, i64 0, i64 %22
  store i32 0, i32* %23, align 4
  br label %24

24:                                               ; preds = %20
  %25 = load i32, i32* %8, align 4
  %26 = add nsw i32 %25, 1
  store i32 %26, i32* %8, align 4
  br label %17

27:                                               ; preds = %17
  store i32 0, i32* %7, align 4
  %28 = getelementptr inbounds [1000 x i8], [1000 x i8]* %2, i64 0, i64 0
  %29 = call i32 (i8*, ...) bitcast (i32 (...)* @gets to i32 (i8*, ...)*)(i8* %28)
  store i32 0, i32* %8, align 4
  br label %30

30:                                               ; preds = %47, %27
  %31 = load i32, i32* %8, align 4
  %32 = sext i32 %31 to i64
  %33 = getelementptr inbounds [1000 x i8], [1000 x i8]* %2, i64 0, i64 0
  %34 = call i64 @strlen(i8* %33) #3
  %35 = icmp ult i64 %32, %34
  br i1 %35, label %36, label %50

36:                                               ; preds = %30
  %37 = load i32, i32* %8, align 4
  %38 = sext i32 %37 to i64
  %39 = getelementptr inbounds [1000 x i8], [1000 x i8]* %2, i64 0, i64 %38
  %40 = load i8, i8* %39, align 1
  %41 = sext i8 %40 to i32
  %42 = sub nsw i32 %41, 97
  %43 = sext i32 %42 to i64
  %44 = getelementptr inbounds [30 x i32], [30 x i32]* %4, i64 0, i64 %43
  %45 = load i32, i32* %44, align 4
  %46 = add nsw i32 %45, 1
  store i32 %46, i32* %44, align 4
  br label %47

47:                                               ; preds = %36
  %48 = load i32, i32* %8, align 4
  %49 = add nsw i32 %48, 1
  store i32 %49, i32* %8, align 4
  br label %30

50:                                               ; preds = %30
  store i32 0, i32* %8, align 4
  br label %51

51:                                               ; preds = %76, %50
  %52 = load i32, i32* %8, align 4
  %53 = sext i32 %52 to i64
  %54 = getelementptr inbounds [1000 x i8], [1000 x i8]* %2, i64 0, i64 0
  %55 = call i64 @strlen(i8* %54) #3
  %56 = icmp ult i64 %53, %55
  br i1 %56, label %57, label %79

57:                                               ; preds = %51
  %58 = load i32, i32* %8, align 4
  %59 = sext i32 %58 to i64
  %60 = getelementptr inbounds [1000 x i8], [1000 x i8]* %2, i64 0, i64 %59
  %61 = load i8, i8* %60, align 1
  %62 = sext i8 %61 to i32
  %63 = sub nsw i32 %62, 97
  %64 = sext i32 %63 to i64
  %65 = getelementptr inbounds [30 x i32], [30 x i32]* %4, i64 0, i64 %64
  %66 = load i32, i32* %65, align 4
  %67 = icmp eq i32 %66, 1
  br i1 %67, label %68, label %75

68:                                               ; preds = %57
  %69 = load i32, i32* %8, align 4
  %70 = sext i32 %69 to i64
  %71 = getelementptr inbounds [1000 x i8], [1000 x i8]* %2, i64 0, i64 %70
  %72 = load i8, i8* %71, align 1
  %73 = sext i8 %72 to i32
  %74 = call i32 (i8*, ...) @printf(i8* getelementptr inbounds ([4 x i8], [4 x i8]* @.str.2, i64 0, i64 0), i32 %73)
  store i32 1, i32* %7, align 4
  br label %79

75:                                               ; preds = %57
  br label %76

76:                                               ; preds = %75
  %77 = load i32, i32* %8, align 4
  %78 = add nsw i32 %77, 1
  store i32 %78, i32* %8, align 4
  br label %51

79:                                               ; preds = %68, %51
  %80 = load i32, i32* %7, align 4
  %81 = icmp eq i32 %80, 0
  br i1 %81, label %82, label %84

82:                                               ; preds = %79
  %83 = call i32 (i8*, ...) @printf(i8* getelementptr inbounds ([4 x i8], [4 x i8]* @.str.3, i64 0, i64 0))
  br label %84

84:                                               ; preds = %82, %79
  br label %85

85:                                               ; preds = %84
  %86 = load i32, i32* %6, align 4
  %87 = add nsw i32 %86, 1
  store i32 %87, i32* %6, align 4
  br label %12

88:                                               ; preds = %12
  ret i32 0
}

declare dso_local i32 @__isoc99_scanf(i8*, ...) #1

declare dso_local i32 @gets(...) #1

; Function Attrs: nounwind readonly
declare dso_local i64 @strlen(i8*) #2

declare dso_local i32 @printf(i8*, ...) #1


!llvm.module.flags = !{!0}
!llvm.ident = !{!1}

!0 = !{i32 1, !"wchar_size", i32 4}
!1 = !{!"clang version 10.0.0-4ubuntu1 "}
