; ModuleID = 'source-C-CXX/36/1083.c'
source_filename = "source-C-CXX/36/1083.c"
target datalayout = "e-m:e-p270:32:32-p271:32:32-p272:64:64-i64:64-f80:128-n8:16:32:64-S128"
target triple = "x86_64-pc-linux-gnu"

@.str = private unnamed_addr constant [3 x i8] c"%d\00", align 1
@.str.1 = private unnamed_addr constant [3 x i8] c"%c\00", align 1
@.str.2 = private unnamed_addr constant [4 x i8] c"%c\0A\00", align 1
@str = private unnamed_addr constant [3 x i8] c"no\00", align 1

; Function Attrs: nounwind sspstrong uwtable
define dso_local i32 @main() local_unnamed_addr #0 {
  %1 = alloca [1000 x i8], align 16
  %2 = alloca i8, align 1
  %3 = alloca [30 x i32], align 16
  %4 = bitcast [30 x i32]* %3 to i8*
  %5 = alloca i32, align 4
  %6 = getelementptr inbounds [1000 x i8], [1000 x i8]* %1, i64 0, i64 0
  call void @llvm.lifetime.start.p0i8(i64 1000, i8* nonnull %6) #7
  call void @llvm.lifetime.start.p0i8(i64 1, i8* nonnull %2) #7
  call void @llvm.lifetime.start.p0i8(i64 120, i8* nonnull %4) #7
  %7 = bitcast i32* %5 to i8*
  call void @llvm.lifetime.start.p0i8(i64 4, i8* nonnull %7) #7
  %8 = call i32 (i8*, ...) @__isoc99_scanf(i8* getelementptr inbounds ([3 x i8], [3 x i8]* @.str, i64 0, i64 0), i32* nonnull %5)
  %9 = call i32 (i8*, ...) @__isoc99_scanf(i8* getelementptr inbounds ([3 x i8], [3 x i8]* @.str.1, i64 0, i64 0), i8* nonnull %2)
  %10 = load i32, i32* %5, align 4, !tbaa !5
  %11 = icmp slt i32 %10, 1
  br i1 %11, label %76, label %12

12:                                               ; preds = %0, %72
  %13 = phi i32 [ %73, %72 ], [ 1, %0 ]
  call void @llvm.memset.p0i8.i64(i8* noundef nonnull align 16 dereferenceable(120) %4, i8 0, i64 120, i1 false)
  %14 = call i32 (i8*, ...) bitcast (i32 (...)* @gets to i32 (i8*, ...)*)(i8* nonnull %6) #7
  %15 = call i64 @strlen(i8* noundef nonnull %6) #8
  %16 = icmp eq i64 %15, 0
  br i1 %16, label %70, label %17

17:                                               ; preds = %12
  %18 = and i64 %15, 1
  %19 = icmp eq i64 %15, 1
  br i1 %19, label %22, label %20

20:                                               ; preds = %17
  %21 = and i64 %15, -2
  br label %34

22:                                               ; preds = %34, %17
  %23 = phi i64 [ 0, %17 ], [ %52, %34 ]
  %24 = icmp eq i64 %18, 0
  br i1 %24, label %33, label %25

25:                                               ; preds = %22
  %26 = getelementptr inbounds [1000 x i8], [1000 x i8]* %1, i64 0, i64 %23
  %27 = load i8, i8* %26, align 1, !tbaa !9
  %28 = sext i8 %27 to i64
  %29 = add nsw i64 %28, -97
  %30 = getelementptr inbounds [30 x i32], [30 x i32]* %3, i64 0, i64 %29
  %31 = load i32, i32* %30, align 4, !tbaa !5
  %32 = add nsw i32 %31, 1
  store i32 %32, i32* %30, align 4, !tbaa !5
  br label %33

33:                                               ; preds = %22, %25
  br i1 %16, label %70, label %57

34:                                               ; preds = %34, %20
  %35 = phi i64 [ 0, %20 ], [ %52, %34 ]
  %36 = phi i64 [ %21, %20 ], [ %53, %34 ]
  %37 = getelementptr inbounds [1000 x i8], [1000 x i8]* %1, i64 0, i64 %35
  %38 = load i8, i8* %37, align 2, !tbaa !9
  %39 = sext i8 %38 to i64
  %40 = add nsw i64 %39, -97
  %41 = getelementptr inbounds [30 x i32], [30 x i32]* %3, i64 0, i64 %40
  %42 = load i32, i32* %41, align 4, !tbaa !5
  %43 = add nsw i32 %42, 1
  store i32 %43, i32* %41, align 4, !tbaa !5
  %44 = or i64 %35, 1
  %45 = getelementptr inbounds [1000 x i8], [1000 x i8]* %1, i64 0, i64 %44
  %46 = load i8, i8* %45, align 1, !tbaa !9
  %47 = sext i8 %46 to i64
  %48 = add nsw i64 %47, -97
  %49 = getelementptr inbounds [30 x i32], [30 x i32]* %3, i64 0, i64 %48
  %50 = load i32, i32* %49, align 4, !tbaa !5
  %51 = add nsw i32 %50, 1
  store i32 %51, i32* %49, align 4, !tbaa !5
  %52 = add nuw nsw i64 %35, 2
  %53 = add i64 %36, -2
  %54 = icmp eq i64 %53, 0
  br i1 %54, label %22, label %34, !llvm.loop !10

55:                                               ; preds = %57
  %56 = icmp eq i64 %66, %15
  br i1 %56, label %70, label %57, !llvm.loop !12

57:                                               ; preds = %33, %55
  %58 = phi i64 [ %66, %55 ], [ 0, %33 ]
  %59 = getelementptr inbounds [1000 x i8], [1000 x i8]* %1, i64 0, i64 %58
  %60 = load i8, i8* %59, align 1, !tbaa !9
  %61 = sext i8 %60 to i64
  %62 = add nsw i64 %61, -97
  %63 = getelementptr inbounds [30 x i32], [30 x i32]* %3, i64 0, i64 %62
  %64 = load i32, i32* %63, align 4, !tbaa !5
  %65 = icmp eq i32 %64, 1
  %66 = add nuw i64 %58, 1
  br i1 %65, label %67, label %55

67:                                               ; preds = %57
  %68 = sext i8 %60 to i32
  %69 = call i32 (i8*, ...) @printf(i8* nonnull dereferenceable(1) getelementptr inbounds ([4 x i8], [4 x i8]* @.str.2, i64 0, i64 0), i32 %68)
  br label %72

70:                                               ; preds = %55, %12, %33
  %71 = call i32 @puts(i8* nonnull dereferenceable(1) getelementptr inbounds ([3 x i8], [3 x i8]* @str, i64 0, i64 0))
  br label %72

72:                                               ; preds = %67, %70
  %73 = add nuw nsw i32 %13, 1
  %74 = load i32, i32* %5, align 4, !tbaa !5
  %75 = icmp slt i32 %13, %74
  br i1 %75, label %12, label %76, !llvm.loop !13

76:                                               ; preds = %72, %0
  call void @llvm.lifetime.end.p0i8(i64 4, i8* nonnull %7) #7
  call void @llvm.lifetime.end.p0i8(i64 120, i8* nonnull %4) #7
  call void @llvm.lifetime.end.p0i8(i64 1, i8* nonnull %2) #7
  call void @llvm.lifetime.end.p0i8(i64 1000, i8* nonnull %6) #7
  ret i32 0
}

; Function Attrs: argmemonly mustprogress nofree nosync nounwind willreturn
declare void @llvm.lifetime.start.p0i8(i64 immarg, i8* nocapture) #1

; Function Attrs: nofree nounwind
declare noundef i32 @__isoc99_scanf(i8* nocapture noundef readonly, ...) local_unnamed_addr #2

declare i32 @gets(...) local_unnamed_addr #3

; Function Attrs: argmemonly mustprogress nofree nounwind readonly willreturn
declare i64 @strlen(i8* nocapture) local_unnamed_addr #4

; Function Attrs: nofree nounwind
declare noundef i32 @printf(i8* nocapture noundef readonly, ...) local_unnamed_addr #2

; Function Attrs: argmemonly mustprogress nofree nosync nounwind willreturn
declare void @llvm.lifetime.end.p0i8(i64 immarg, i8* nocapture) #1

; Function Attrs: nofree nounwind
declare noundef i32 @puts(i8* nocapture noundef readonly) local_unnamed_addr #5

; Function Attrs: argmemonly nofree nounwind willreturn writeonly
declare void @llvm.memset.p0i8.i64(i8* nocapture writeonly, i8, i64, i1 immarg) #6


!llvm.module.flags = !{!0, !1, !2, !3}
!llvm.ident = !{!4}

!0 = !{i32 1, !"wchar_size", i32 4}
!1 = !{i32 7, !"PIC Level", i32 2}
!2 = !{i32 7, !"PIE Level", i32 2}
!3 = !{i32 7, !"uwtable", i32 1}
!4 = !{!"clang version 13.0.0"}
!5 = !{!6, !6, i64 0}
!6 = !{!"int", !7, i64 0}
!7 = !{!"omnipotent char", !8, i64 0}
!8 = !{!"Simple C/C++ TBAA"}
!9 = !{!7, !7, i64 0}
!10 = distinct !{!10, !11}
!11 = !{!"llvm.loop.mustprogress"}
!12 = distinct !{!12, !11}
!13 = distinct !{!13, !11}
